target datalayout = "e-m:e-p270:32:32-p271:32:32-p272:64:64-i64:64-i128:128-f80:128-n8:16:32:64-S128"
target triple = "x86_64-unknown-linux-gnu"

%class.b2World = type <{ %class.b2BlockAllocator, %class.b2StackAllocator, %class.b2ContactManager, ptr, ptr, i32, i32, %struct.b2Vec2, i8, [7 x i8], ptr, ptr, float, i8, i8, i8, i8, i8, i8, i8, i8, %struct.b2Profile, [4 x i8] }>
%class.b2BlockAllocator = type { ptr, i32, i32, [14 x ptr] }
%class.b2StackAllocator = type <{ [102400 x i8], i32, i32, i32, [4 x i8], [32 x %struct.b2StackEntry], i32, [4 x i8] }>
%struct.b2StackEntry = type { ptr, i32, i8 }
%class.b2ContactManager = type { %class.b2BroadPhase, ptr, i32, ptr, ptr, ptr }
%class.b2BroadPhase = type <{ %class.b2DynamicTree, i32, [4 x i8], ptr, i32, i32, ptr, i32, i32, i32, [4 x i8] }>
%class.b2DynamicTree = type { i32, ptr, i32, i32, i32, i32 }
%struct.b2Vec2 = type { float, float }
%struct.b2Profile = type { float, float, float, float, float, float, float, float }
%class.b2Body = type { i32, i16, i32, %struct.b2Transform, %struct.b2Sweep, %struct.b2Vec2, float, %struct.b2Vec2, float, ptr, ptr, ptr, ptr, i32, ptr, ptr, float, float, float, float, float, float, float, float, %struct.b2BodyUserData }
%struct.b2Transform = type { %struct.b2Vec2, %struct.b2Rot }
%struct.b2Rot = type { float, float }
%struct.b2Sweep = type { %struct.b2Vec2, %struct.b2Vec2, %struct.b2Vec2, float, float, float }
%struct.b2BodyUserData = type { i64 }
%struct.b2JointEdge = type { ptr, ptr, ptr, ptr }
%struct.b2ContactEdge = type { ptr, ptr, ptr, ptr }
%class.b2Joint = type { ptr, i32, ptr, ptr, %struct.b2JointEdge, %struct.b2JointEdge, ptr, ptr, i32, i8, i8, %struct.b2JointUserData }
%struct.b2JointUserData = type { i64 }
%struct.b2JointDef = type <{ i32, [4 x i8], %struct.b2JointUserData, ptr, ptr, i8, [7 x i8] }>
%class.b2Contact = type { ptr, i32, ptr, ptr, %struct.b2ContactEdge, %struct.b2ContactEdge, ptr, ptr, i32, i32, %struct.b2Manifold, i32, float, float, float, float, float }
%struct.b2Manifold = type { [2 x %struct.b2ManifoldPoint], %struct.b2Vec2, %struct.b2Vec2, i32, i32 }
%struct.b2ManifoldPoint = type { %struct.b2Vec2, float, float, %union.b2ContactID }
%union.b2ContactID = type { i32 }

; Function Attrs: mustprogress nounwind uwtable
define linkonce_odr hidden void @_ZN9b2Contact16FlagForFilteringEv(ptr noundef nonnull align 8 dereferenceable(208) %this) #5 comdat align 2 {
entry:
  %this.addr = alloca ptr, align 8
  store ptr %this, ptr %this.addr, align 8
  %this1 = load ptr, ptr %this.addr, align 8
  %m_flags = getelementptr inbounds %class.b2Contact, ptr %this1, i32 0, i32 1
  %0 = load i32, ptr %m_flags, align 8
  %or = or i32 %0, 8
  store i32 %or, ptr %m_flags, align 8
  ret void
}

; Function Attrs: mustprogress nounwind uwtable
define linkonce_odr hidden noundef ptr @_ZN6b2Body14GetContactListEv(ptr noundef nonnull align 8 dereferenceable(184) %this) #5 comdat align 2 {
entry:
  %this.addr = alloca ptr, align 8
  store ptr %this, ptr %this.addr, align 8
  %this1 = load ptr, ptr %this.addr, align 8
  %m_contactList = getelementptr inbounds %class.b2Body, ptr %this1, i32 0, i32 15
  %0 = load ptr, ptr %m_contactList, align 8
  ret ptr %0
}

; Function Attrs: mustprogress nounwind uwtable
define linkonce_odr hidden noundef zeroext i1 @_ZNK7b2World8IsLockedEv(ptr noundef nonnull align 8 dereferenceable(103284) %this) #5 comdat align 2 {
entry:
  %this.addr = alloca ptr, align 8
  store ptr %this, ptr %this.addr, align 8
  %this1 = load ptr, ptr %this.addr, align 8
  %m_locked = getelementptr inbounds %class.b2World, ptr %this1, i32 0, i32 14
  %0 = load i8, ptr %m_locked, align 1
  %tobool = trunc i8 %0 to i1
  ret i1 %tobool
}

; Function Attrs: mustprogress uwtable
define noundef ptr @_ZN7b2World11CreateJointEPK10b2JointDef(ptr noundef nonnull align 8 dereferenceable(103284) %this, ptr noundef %def) #0 align 2 {
entry:
  %retval = alloca ptr, align 8
  %this.addr = alloca ptr, align 8
  %def.addr = alloca ptr, align 8
  %j = alloca ptr, align 8
  %bodyA = alloca ptr, align 8
  %bodyB = alloca ptr, align 8
  %edge = alloca ptr, align 8
  store ptr %this, ptr %this.addr, align 8
  store ptr %def, ptr %def.addr, align 8
  %this1 = load ptr, ptr %this.addr, align 8
  %call = call noundef zeroext i1 @_ZNK7b2World8IsLockedEv(ptr noundef nonnull align 8 dereferenceable(103284) %this1)
  br i1 %call, label %if.then, label %if.end

if.then:                                          ; preds = %entry
  store ptr null, ptr %retval, align 8
  br label %return

if.end:                                           ; preds = %entry
  %0 = load ptr, ptr %def.addr, align 8
  %m_blockAllocator = getelementptr inbounds %class.b2World, ptr %this1, i32 0, i32 0
  %call2 = call noundef ptr @_ZN7b2Joint6CreateEPK10b2JointDefP16b2BlockAllocator(ptr noundef %0, ptr noundef %m_blockAllocator)
  store ptr %call2, ptr %j, align 8
  %1 = load ptr, ptr %j, align 8
  %m_prev = getelementptr inbounds %class.b2Joint, ptr %1, i32 0, i32 2
  store ptr null, ptr %m_prev, align 8
  %m_jointList = getelementptr inbounds %class.b2World, ptr %this1, i32 0, i32 4
  %2 = load ptr, ptr %m_jointList, align 8
  %3 = load ptr, ptr %j, align 8
  %m_next = getelementptr inbounds %class.b2Joint, ptr %3, i32 0, i32 3
  store ptr %2, ptr %m_next, align 8
  %m_jointList3 = getelementptr inbounds %class.b2World, ptr %this1, i32 0, i32 4
  %4 = load ptr, ptr %m_jointList3, align 8
  %tobool = icmp ne ptr %4, null
  br i1 %tobool, label %if.then4, label %if.end7

if.then4:                                         ; preds = %if.end
  %5 = load ptr, ptr %j, align 8
  %m_jointList5 = getelementptr inbounds %class.b2World, ptr %this1, i32 0, i32 4
  %6 = load ptr, ptr %m_jointList5, align 8
  %m_prev6 = getelementptr inbounds %class.b2Joint, ptr %6, i32 0, i32 2
  store ptr %5, ptr %m_prev6, align 8
  br label %if.end7

if.end7:                                          ; preds = %if.then4, %if.end
  %7 = load ptr, ptr %j, align 8
  %m_jointList8 = getelementptr inbounds %class.b2World, ptr %this1, i32 0, i32 4
  store ptr %7, ptr %m_jointList8, align 8
  %m_jointCount = getelementptr inbounds %class.b2World, ptr %this1, i32 0, i32 6
  %8 = load i32, ptr %m_jointCount, align 4
  %inc = add nsw i32 %8, 1
  store i32 %inc, ptr %m_jointCount, align 4
  %9 = load ptr, ptr %j, align 8
  %10 = load ptr, ptr %j, align 8
  %m_edgeA = getelementptr inbounds %class.b2Joint, ptr %10, i32 0, i32 4
  %joint = getelementptr inbounds %struct.b2JointEdge, ptr %m_edgeA, i32 0, i32 1
  store ptr %9, ptr %joint, align 8
  %11 = load ptr, ptr %j, align 8
  %m_bodyB = getelementptr inbounds %class.b2Joint, ptr %11, i32 0, i32 7
  %12 = load ptr, ptr %m_bodyB, align 8
  %13 = load ptr, ptr %j, align 8
  %m_edgeA9 = getelementptr inbounds %class.b2Joint, ptr %13, i32 0, i32 4
  %other = getelementptr inbounds %struct.b2JointEdge, ptr %m_edgeA9, i32 0, i32 0
  store ptr %12, ptr %other, align 8
  %14 = load ptr, ptr %j, align 8
  %m_edgeA10 = getelementptr inbounds %class.b2Joint, ptr %14, i32 0, i32 4
  %prev = getelementptr inbounds %struct.b2JointEdge, ptr %m_edgeA10, i32 0, i32 2
  store ptr null, ptr %prev, align 8
  %15 = load ptr, ptr %j, align 8
  %m_bodyA = getelementptr inbounds %class.b2Joint, ptr %15, i32 0, i32 6
  %16 = load ptr, ptr %m_bodyA, align 8
  %m_jointList11 = getelementptr inbounds %class.b2Body, ptr %16, i32 0, i32 14
  %17 = load ptr, ptr %m_jointList11, align 8
  %18 = load ptr, ptr %j, align 8
  %m_edgeA12 = getelementptr inbounds %class.b2Joint, ptr %18, i32 0, i32 4
  %next = getelementptr inbounds %struct.b2JointEdge, ptr %m_edgeA12, i32 0, i32 3
  store ptr %17, ptr %next, align 8
  %19 = load ptr, ptr %j, align 8
  %m_bodyA13 = getelementptr inbounds %class.b2Joint, ptr %19, i32 0, i32 6
  %20 = load ptr, ptr %m_bodyA13, align 8
  %m_jointList14 = getelementptr inbounds %class.b2Body, ptr %20, i32 0, i32 14
  %21 = load ptr, ptr %m_jointList14, align 8
  %tobool15 = icmp ne ptr %21, null
  br i1 %tobool15, label %if.then16, label %if.end21

if.then16:                                        ; preds = %if.end7
  %22 = load ptr, ptr %j, align 8
  %m_edgeA17 = getelementptr inbounds %class.b2Joint, ptr %22, i32 0, i32 4
  %23 = load ptr, ptr %j, align 8
  %m_bodyA18 = getelementptr inbounds %class.b2Joint, ptr %23, i32 0, i32 6
  %24 = load ptr, ptr %m_bodyA18, align 8
  %m_jointList19 = getelementptr inbounds %class.b2Body, ptr %24, i32 0, i32 14
  %25 = load ptr, ptr %m_jointList19, align 8
  %prev20 = getelementptr inbounds %struct.b2JointEdge, ptr %25, i32 0, i32 2
  store ptr %m_edgeA17, ptr %prev20, align 8
  br label %if.end21

if.end21:                                         ; preds = %if.then16, %if.end7
  %26 = load ptr, ptr %j, align 8
  %m_edgeA22 = getelementptr inbounds %class.b2Joint, ptr %26, i32 0, i32 4
  %27 = load ptr, ptr %j, align 8
  %m_bodyA23 = getelementptr inbounds %class.b2Joint, ptr %27, i32 0, i32 6
  %28 = load ptr, ptr %m_bodyA23, align 8
  %m_jointList24 = getelementptr inbounds %class.b2Body, ptr %28, i32 0, i32 14
  store ptr %m_edgeA22, ptr %m_jointList24, align 8
  %29 = load ptr, ptr %j, align 8
  %30 = load ptr, ptr %j, align 8
  %m_edgeB = getelementptr inbounds %class.b2Joint, ptr %30, i32 0, i32 5
  %joint25 = getelementptr inbounds %struct.b2JointEdge, ptr %m_edgeB, i32 0, i32 1
  store ptr %29, ptr %joint25, align 8
  %31 = load ptr, ptr %j, align 8
  %m_bodyA26 = getelementptr inbounds %class.b2Joint, ptr %31, i32 0, i32 6
  %32 = load ptr, ptr %m_bodyA26, align 8
  %33 = load ptr, ptr %j, align 8
  %m_edgeB27 = getelementptr inbounds %class.b2Joint, ptr %33, i32 0, i32 5
  %other28 = getelementptr inbounds %struct.b2JointEdge, ptr %m_edgeB27, i32 0, i32 0
  store ptr %32, ptr %other28, align 8
  %34 = load ptr, ptr %j, align 8
  %m_edgeB29 = getelementptr inbounds %class.b2Joint, ptr %34, i32 0, i32 5
  %prev30 = getelementptr inbounds %struct.b2JointEdge, ptr %m_edgeB29, i32 0, i32 2
  store ptr null, ptr %prev30, align 8
  %35 = load ptr, ptr %j, align 8
  %m_bodyB31 = getelementptr inbounds %class.b2Joint, ptr %35, i32 0, i32 7
  %36 = load ptr, ptr %m_bodyB31, align 8
  %m_jointList32 = getelementptr inbounds %class.b2Body, ptr %36, i32 0, i32 14
  %37 = load ptr, ptr %m_jointList32, align 8
  %38 = load ptr, ptr %j, align 8
  %m_edgeB33 = getelementptr inbounds %class.b2Joint, ptr %38, i32 0, i32 5
  %next34 = getelementptr inbounds %struct.b2JointEdge, ptr %m_edgeB33, i32 0, i32 3
  store ptr %37, ptr %next34, align 8
  %39 = load ptr, ptr %j, align 8
  %m_bodyB35 = getelementptr inbounds %class.b2Joint, ptr %39, i32 0, i32 7
  %40 = load ptr, ptr %m_bodyB35, align 8
  %m_jointList36 = getelementptr inbounds %class.b2Body, ptr %40, i32 0, i32 14
  %41 = load ptr, ptr %m_jointList36, align 8
  %tobool37 = icmp ne ptr %41, null
  br i1 %tobool37, label %if.then38, label %if.end43

if.then38:                                        ; preds = %if.end21
  %42 = load ptr, ptr %j, align 8
  %m_edgeB39 = getelementptr inbounds %class.b2Joint, ptr %42, i32 0, i32 5
  %43 = load ptr, ptr %j, align 8
  %m_bodyB40 = getelementptr inbounds %class.b2Joint, ptr %43, i32 0, i32 7
  %44 = load ptr, ptr %m_bodyB40, align 8
  %m_jointList41 = getelementptr inbounds %class.b2Body, ptr %44, i32 0, i32 14
  %45 = load ptr, ptr %m_jointList41, align 8
  %prev42 = getelementptr inbounds %struct.b2JointEdge, ptr %45, i32 0, i32 2
  store ptr %m_edgeB39, ptr %prev42, align 8
  br label %if.end43

if.end43:                                         ; preds = %if.then38, %if.end21
  %46 = load ptr, ptr %j, align 8
  %m_edgeB44 = getelementptr inbounds %class.b2Joint, ptr %46, i32 0, i32 5
  %47 = load ptr, ptr %j, align 8
  %m_bodyB45 = getelementptr inbounds %class.b2Joint, ptr %47, i32 0, i32 7
  %48 = load ptr, ptr %m_bodyB45, align 8
  %m_jointList46 = getelementptr inbounds %class.b2Body, ptr %48, i32 0, i32 14
  store ptr %m_edgeB44, ptr %m_jointList46, align 8
  %49 = load ptr, ptr %def.addr, align 8
  %bodyA47 = getelementptr inbounds %struct.b2JointDef, ptr %49, i32 0, i32 3
  %50 = load ptr, ptr %bodyA47, align 8
  store ptr %50, ptr %bodyA, align 8
  %51 = load ptr, ptr %def.addr, align 8
  %bodyB48 = getelementptr inbounds %struct.b2JointDef, ptr %51, i32 0, i32 4
  %52 = load ptr, ptr %bodyB48, align 8
  store ptr %52, ptr %bodyB, align 8
  %53 = load ptr, ptr %def.addr, align 8
  %collideConnected = getelementptr inbounds %struct.b2JointDef, ptr %53, i32 0, i32 5
  %54 = load i8, ptr %collideConnected, align 8
  %tobool49 = trunc i8 %54 to i1
  %conv = zext i1 %tobool49 to i32
  %cmp = icmp eq i32 %conv, 0
  br i1 %cmp, label %if.then50, label %if.end58

if.then50:                                        ; preds = %if.end43
  %55 = load ptr, ptr %bodyB, align 8
  %call51 = call noundef ptr @_ZN6b2Body14GetContactListEv(ptr noundef nonnull align 8 dereferenceable(184) %55)
  store ptr %call51, ptr %edge, align 8
  br label %while.cond

while.cond:                                       ; preds = %if.end56, %if.then50
  %56 = load ptr, ptr %edge, align 8
  %tobool52 = icmp ne ptr %56, null
  br i1 %tobool52, label %while.body, label %while.end

while.body:                                       ; preds = %while.cond
  %57 = load ptr, ptr %edge, align 8
  %other53 = getelementptr inbounds %struct.b2ContactEdge, ptr %57, i32 0, i32 0
  %58 = load ptr, ptr %other53, align 8
  %59 = load ptr, ptr %bodyA, align 8
  %cmp54 = icmp eq ptr %58, %59
  br i1 %cmp54, label %if.then55, label %if.end56

if.then55:                                        ; preds = %while.body
  %60 = load ptr, ptr %edge, align 8
  %contact = getelementptr inbounds %struct.b2ContactEdge, ptr %60, i32 0, i32 1
  %61 = load ptr, ptr %contact, align 8
  call void @_ZN9b2Contact16FlagForFilteringEv(ptr noundef nonnull align 8 dereferenceable(208) %61)
  br label %if.end56

if.end56:                                         ; preds = %if.then55, %while.body
  %62 = load ptr, ptr %edge, align 8
  %next57 = getelementptr inbounds %struct.b2ContactEdge, ptr %62, i32 0, i32 3
  %63 = load ptr, ptr %next57, align 8
  store ptr %63, ptr %edge, align 8
  br label %while.cond, !llvm.loop !11

while.end:                                        ; preds = %while.cond
  br label %if.end58

if.end58:                                         ; preds = %while.end, %if.end43
  %64 = load ptr, ptr %j, align 8
  store ptr %64, ptr %retval, align 8
  br label %return

return:                                           ; preds = %if.end58, %if.then
  %65 = load ptr, ptr %retval, align 8
  ret ptr %65
}