; Function Attrs: mustprogress uwtable
define noundef ptr @_ZN7b2World11CreateJointEPK10b2JointDef(ptr noundef nonnull align 8 dereferenceable(103284) %this, ptr noundef %def) local_unnamed_addr #0 align 2 {
entry:
  %m_locked.i = getelementptr inbounds nuw i8, ptr %this, i64 103245
  %0 = load i8, ptr %m_locked.i, align 1
  %tobool.i = trunc i8 %0 to i1
  br i1 %tobool.i, label %return, label %if.end

if.end:                                           ; preds = %entry
  %call2 = tail call noundef ptr @_ZN7b2Joint6CreateEPK10b2JointDefP16b2BlockAllocator(ptr noundef %def, ptr noundef nonnull %this)
  %m_prev = getelementptr inbounds nuw i8, ptr %call2, i64 16
  store ptr null, ptr %m_prev, align 8
  %m_jointList = getelementptr inbounds nuw i8, ptr %this, i64 103192
  %1 = load ptr, ptr %m_jointList, align 8
  %m_next = getelementptr inbounds nuw i8, ptr %call2, i64 24
  store ptr %1, ptr %m_next, align 8
  %tobool.not = icmp eq ptr %1, null
  br i1 %tobool.not, label %if.end7, label %if.then4

if.then4:                                         ; preds = %if.end
  %m_prev6 = getelementptr inbounds nuw i8, ptr %1, i64 16
  store ptr %call2, ptr %m_prev6, align 8
  br label %if.end7

if.end7:                                          ; preds = %if.then4, %if.end
  store ptr %call2, ptr %m_jointList, align 8
  %m_jointCount = getelementptr inbounds nuw i8, ptr %this, i64 103204
  %2 = load i32, ptr %m_jointCount, align 4
  %inc = add nsw i32 %2, 1
  store i32 %inc, ptr %m_jointCount, align 4
  %m_edgeA = getelementptr inbounds nuw i8, ptr %call2, i64 32
  %joint = getelementptr inbounds nuw i8, ptr %call2, i64 40
  store ptr %call2, ptr %joint, align 8
  %m_bodyB = getelementptr inbounds nuw i8, ptr %call2, i64 104
  %3 = load ptr, ptr %m_bodyB, align 8
  store ptr %3, ptr %m_edgeA, align 8
  %prev = getelementptr inbounds nuw i8, ptr %call2, i64 48
  store ptr null, ptr %prev, align 8
  %m_bodyA = getelementptr inbounds nuw i8, ptr %call2, i64 96
  %4 = load ptr, ptr %m_bodyA, align 8
  %m_jointList11 = getelementptr inbounds nuw i8, ptr %4, i64 128
  %5 = load ptr, ptr %m_jointList11, align 8
  %next = getelementptr inbounds nuw i8, ptr %call2, i64 56
  store ptr %5, ptr %next, align 8
  %tobool15.not = icmp eq ptr %5, null
  br i1 %tobool15.not, label %if.end21, label %if.then16

if.then16:                                        ; preds = %if.end7
  %prev20 = getelementptr inbounds nuw i8, ptr %5, i64 16
  store ptr %m_edgeA, ptr %prev20, align 8
  %.pre = load ptr, ptr %m_bodyA, align 8
  br label %if.end21

if.end21:                                         ; preds = %if.then16, %if.end7
  %6 = phi ptr [ %.pre, %if.then16 ], [ %4, %if.end7 ]
  %m_jointList24 = getelementptr inbounds nuw i8, ptr %6, i64 128
  store ptr %m_edgeA, ptr %m_jointList24, align 8
  %m_edgeB = getelementptr inbounds nuw i8, ptr %call2, i64 64
  %joint25 = getelementptr inbounds nuw i8, ptr %call2, i64 72
  store ptr %call2, ptr %joint25, align 8
  %7 = load ptr, ptr %m_bodyA, align 8
  store ptr %7, ptr %m_edgeB, align 8
  %prev30 = getelementptr inbounds nuw i8, ptr %call2, i64 80
  store ptr null, ptr %prev30, align 8
  %8 = load ptr, ptr %m_bodyB, align 8
  %m_jointList32 = getelementptr inbounds nuw i8, ptr %8, i64 128
  %9 = load ptr, ptr %m_jointList32, align 8
  %next34 = getelementptr inbounds nuw i8, ptr %call2, i64 88
  store ptr %9, ptr %next34, align 8
  %tobool37.not = icmp eq ptr %9, null
  br i1 %tobool37.not, label %if.end43, label %if.then38

if.then38:                                        ; preds = %if.end21
  %prev42 = getelementptr inbounds nuw i8, ptr %9, i64 16
  store ptr %m_edgeB, ptr %prev42, align 8
  %.pre40 = load ptr, ptr %m_bodyB, align 8
  br label %if.end43

if.end43:                                         ; preds = %if.then38, %if.end21
  %10 = phi ptr [ %.pre40, %if.then38 ], [ %8, %if.end21 ]
  %m_jointList46 = getelementptr inbounds nuw i8, ptr %10, i64 128
  store ptr %m_edgeB, ptr %m_jointList46, align 8
  %bodyA47 = getelementptr inbounds nuw i8, ptr %def, i64 16
  %11 = load ptr, ptr %bodyA47, align 8
  %collideConnected = getelementptr inbounds nuw i8, ptr %def, i64 32
  %12 = load i8, ptr %collideConnected, align 8
  %13 = and i8 %12, 1
  %cmp = icmp eq i8 %13, 0
  br i1 %cmp, label %if.then50, label %return

if.then50:                                        ; preds = %if.end43
  %bodyB48 = getelementptr inbounds nuw i8, ptr %def, i64 24
  %14 = load ptr, ptr %bodyB48, align 8
  %m_contactList.i = getelementptr inbounds nuw i8, ptr %14, i64 136
  %edge.037 = load ptr, ptr %m_contactList.i, align 8
  %tobool52.not38 = icmp eq ptr %edge.037, null
  br i1 %tobool52.not38, label %return, label %while.body

while.body:                                       ; preds = %if.then50, %if.end56
  %edge.039 = phi ptr [ %edge.0, %if.end56 ], [ %edge.037, %if.then50 ]
  %15 = load ptr, ptr %edge.039, align 8
  %cmp54 = icmp eq ptr %15, %11
  br i1 %cmp54, label %if.then55, label %if.end56

if.then55:                                        ; preds = %while.body
  %contact = getelementptr inbounds nuw i8, ptr %edge.039, i64 8
  %16 = load ptr, ptr %contact, align 8
  %m_flags.i = getelementptr inbounds nuw i8, ptr %16, i64 8
  %17 = load i32, ptr %m_flags.i, align 8
  %or.i = or i32 %17, 8
  store i32 %or.i, ptr %m_flags.i, align 8
  br label %if.end56

if.end56:                                         ; preds = %if.then55, %while.body
  %next57 = getelementptr inbounds nuw i8, ptr %edge.039, i64 24
  %edge.0 = load ptr, ptr %next57, align 8
  %tobool52.not = icmp eq ptr %edge.0, null
  br i1 %tobool52.not, label %return, label %while.body, !llvm.loop !11

return:                                           ; preds = %if.end56, %if.then50, %if.end43, %entry
  %retval.0 = phi ptr [ null, %entry ], [ %call2, %if.end43 ], [ %call2, %if.then50 ], [ %call2, %if.end56 ]
  ret ptr %retval.0
}